; Function Attrs: mustprogress nofree norecurse nosync nounwind willreturn memory(argmem: write) uwtable
define void @_ZN6google8protobuf2io24ConcatenatingInputStreamC2EPKPNS1_19ZeroCopyInputStreamEi(ptr nocapture noundef nonnull writeonly align 8 dereferenceable(32) %0, ptr noundef %1, i32 noundef %2) unnamed_addr #4 align 2 {
  store ptr getelementptr inbounds inrange(-16, 48) (i8, ptr @_ZTVN6google8protobuf2io24ConcatenatingInputStreamE, i64 16), ptr %0, align 8
  %4 = getelementptr inbounds i8, ptr %0, i64 8
  store ptr %1, ptr %4, align 8
  %5 = getelementptr inbounds i8, ptr %0, i64 16
  store i32 %2, ptr %5, align 8
  %6 = getelementptr inbounds i8, ptr %0, i64 24
  store i64 0, ptr %6, align 8
  ret void
}